; Function Attrs: nounwind uwtable
define internal fastcc i32 @set_protocol_version(ptr noundef %0, ptr noundef nonnull %1, i32 noundef range(i32 123, 125) %2) unnamed_addr #7 {
  %.not = icmp eq ptr %0, null
  br i1 %.not, label %19, label %.preheader

4:                                                ; preds = %.preheader
  %5 = add nuw nsw i64 %.067.i, 1
  %exitcond.not.i = icmp eq i64 %5, 7
  br i1 %exitcond.not.i, label %protocol_from_string.exit.thread, label %.preheader, !llvm.loop !37

.preheader:                                       ; preds = %3, %4
  %.067.i = phi i64 [ %5, %4 ], [ 0, %3 ]
  %6 = getelementptr inbounds nuw [7 x %struct.protocol_versions], ptr @protocol_from_string.versions, i64 0, i64 %.067.i
  %7 = load ptr, ptr %6, align 16, !tbaa !38
  %8 = tail call i32 @strcmp(ptr noundef nonnull dereferenceable(1) %7, ptr noundef nonnull readonly dereferenceable(1) %0) #25
  %9 = icmp eq i32 %8, 0
  br i1 %9, label %protocol_from_string.exit, label %4

protocol_from_string.exit:                        ; preds = %.preheader
  %10 = getelementptr inbounds nuw i8, ptr %6, i64 8
  %11 = load i32, ptr %10, align 8, !tbaa !40
  %12 = icmp slt i32 %11, 0
  br i1 %12, label %protocol_from_string.exit.thread, label %15

protocol_from_string.exit.thread:                 ; preds = %4, %protocol_from_string.exit
  %13 = load ptr, ptr @bio_err, align 8, !tbaa !19
  %14 = tail call i32 (ptr, ptr, ...) @BIO_printf(ptr noundef %13, ptr noundef nonnull @.str.111, ptr noundef nonnull %0) #23
  br label %19

15:                                               ; preds = %protocol_from_string.exit
  %16 = zext nneg i32 %11 to i64
  %17 = tail call i64 @SSL_ctrl(ptr noundef nonnull %1, i32 noundef %2, i64 noundef %16, ptr noundef null) #23
  %18 = trunc i64 %17 to i32
  br label %19

19:                                               ; preds = %3, %protocol_from_string.exit.thread, %15
  %.1 = phi i32 [ 0, %protocol_from_string.exit.thread ], [ %18, %15 ], [ 1, %3 ]
  ret i32 %.1
}